target datalayout = "e-m:e-p270:32:32-p271:32:32-p272:64:64-i64:64-i128:128-f80:128-n8:16:32:64-S128"
target triple = "x86_64-pc-linux-gnu"

%struct.ident_t = type { i32, i32, i32, i32, ptr }
%"class.ncnn::Mat" = type { ptr, ptr, i64, i32, ptr, i32, i32, i32, i32, i32, i64 }

@1 = private unnamed_addr constant %struct.ident_t { i32 0, i32 514, i32 0, i32 22, ptr @0 }, align 8

; Function Attrs: noinline noreturn nounwind uwtable
define linkonce_odr hidden void @__clang_call_terminate(ptr noundef %0) #9 comdat {
  %2 = call ptr @__cxa_begin_catch(ptr %0) #15
  call void @_ZSt9terminatev() #19
  unreachable
}

; Function Attrs: alwaysinline mustprogress nounwind uwtable
define linkonce_odr hidden noundef ptr @_ZN4ncnn3Mat3rowEi(ptr noundef nonnull align 8 dereferenceable(72) %0, i32 noundef %1) #5 comdat align 2 {
  %3 = alloca ptr, align 8
  %4 = alloca i32, align 4
  store ptr %0, ptr %3, align 8, !tbaa !44
  store i32 %1, ptr %4, align 4, !tbaa !48
  %5 = load ptr, ptr %3, align 8
  %6 = getelementptr inbounds nuw %"class.ncnn::Mat", ptr %5, i32 0, i32 0
  %7 = load ptr, ptr %6, align 8, !tbaa !64
  %8 = getelementptr inbounds nuw %"class.ncnn::Mat", ptr %5, i32 0, i32 6
  %9 = load i32, ptr %8, align 4, !tbaa !45
  %10 = sext i32 %9 to i64
  %11 = load i32, ptr %4, align 4, !tbaa !48
  %12 = sext i32 %11 to i64
  %13 = mul i64 %10, %12
  %14 = getelementptr inbounds nuw %"class.ncnn::Mat", ptr %5, i32 0, i32 2
  %15 = load i64, ptr %14, align 8, !tbaa !52
  %16 = mul i64 %13, %15
  %17 = getelementptr inbounds nuw i8, ptr %7, i64 %16
  ret ptr %17
}

; Function Attrs: alwaysinline mustprogress nounwind uwtable
define linkonce_odr hidden noundef ptr @_ZNK4ncnn3Mat3rowEi(ptr noundef nonnull align 8 dereferenceable(72) %0, i32 noundef %1) #5 comdat align 2 {
  %3 = alloca ptr, align 8
  %4 = alloca i32, align 4
  store ptr %0, ptr %3, align 8, !tbaa !44
  store i32 %1, ptr %4, align 4, !tbaa !48
  %5 = load ptr, ptr %3, align 8
  %6 = getelementptr inbounds nuw %"class.ncnn::Mat", ptr %5, i32 0, i32 0
  %7 = load ptr, ptr %6, align 8, !tbaa !64
  %8 = getelementptr inbounds nuw %"class.ncnn::Mat", ptr %5, i32 0, i32 6
  %9 = load i32, ptr %8, align 4, !tbaa !45
  %10 = sext i32 %9 to i64
  %11 = load i32, ptr %4, align 4, !tbaa !48
  %12 = sext i32 %11 to i64
  %13 = mul i64 %10, %12
  %14 = getelementptr inbounds nuw %"class.ncnn::Mat", ptr %5, i32 0, i32 2
  %15 = load i64, ptr %14, align 8, !tbaa !52
  %16 = mul i64 %13, %15
  %17 = getelementptr inbounds nuw i8, ptr %7, i64 %16
  ret ptr %17
}

; Function Attrs: alwaysinline norecurse nounwind uwtable
define internal void @_ZNK4ncnn6Interp7forwardERKSt6vectorINS_3MatESaIS2_EERS4_RKNS_6OptionE.omp_outlined.5(ptr noalias noundef %0, ptr noalias noundef %1, ptr noundef nonnull align 4 dereferenceable(4) %2, ptr noundef nonnull align 8 dereferenceable(72) %3, ptr noundef nonnull align 8 dereferenceable(72) %4, ptr noundef nonnull align 8 dereferenceable(8) %5, ptr noundef nonnull align 4 dereferenceable(4) %6, ptr noundef nonnull align 8 dereferenceable(8) %7) #14 personality ptr @__gxx_personality_v0 {
  %9 = alloca ptr, align 8
  %10 = alloca ptr, align 8
  %11 = alloca ptr, align 8
  %12 = alloca ptr, align 8
  %13 = alloca ptr, align 8
  %14 = alloca ptr, align 8
  %15 = alloca ptr, align 8
  %16 = alloca ptr, align 8
  %17 = alloca ptr, align 8
  %18 = alloca ptr, align 8
  %19 = alloca i32, align 4
  %20 = alloca i32, align 4
  %21 = alloca i32, align 4
  %22 = alloca i32, align 4
  %23 = alloca i32, align 4
  %24 = alloca i32, align 4
  %25 = alloca i32, align 4
  %26 = alloca i32, align 4
  %27 = alloca i32, align 4
  %28 = alloca ptr, align 8
  %29 = alloca ptr, align 8
  %30 = alloca ptr, align 8
  %31 = alloca i32, align 4
  %32 = alloca i32, align 4
  %33 = alloca ptr, align 8
  %34 = alloca float, align 4
  %35 = alloca float, align 4
  %36 = alloca float, align 4
  %37 = alloca float, align 4
  store ptr %0, ptr %9, align 8, !tbaa !58
  store ptr %1, ptr %10, align 8, !tbaa !58
  store ptr %2, ptr %11, align 8, !tbaa !58
  store ptr %3, ptr %12, align 8, !tbaa !44
  store ptr %4, ptr %13, align 8, !tbaa !44
  store ptr %5, ptr %14, align 8, !tbaa !97
  store ptr %6, ptr %15, align 8, !tbaa !58
  store ptr %7, ptr %16, align 8, !tbaa !100
  %38 = load ptr, ptr %11, align 8, !tbaa !58
  %39 = load ptr, ptr %12, align 8, !tbaa !44
  %40 = load ptr, ptr %13, align 8, !tbaa !44
  %41 = load ptr, ptr %14, align 8, !tbaa !97
  %42 = load ptr, ptr %15, align 8, !tbaa !58
  %43 = load ptr, ptr %16, align 8, !tbaa !100
  store ptr %39, ptr %17, align 8
  store ptr %40, ptr %18, align 8
  call void @llvm.lifetime.start.p0(i64 4, ptr %19) #15
  call void @llvm.lifetime.start.p0(i64 4, ptr %20) #15
  %44 = load i32, ptr %38, align 4, !tbaa !48
  store i32 %44, ptr %20, align 4, !tbaa !48
  call void @llvm.lifetime.start.p0(i64 4, ptr %21) #15
  %45 = load i32, ptr %20, align 4, !tbaa !48
  %46 = sub nsw i32 %45, 0
  %47 = sdiv i32 %46, 1
  %48 = sub nsw i32 %47, 1
  store i32 %48, ptr %21, align 4, !tbaa !48
  call void @llvm.lifetime.start.p0(i64 4, ptr %22) #15
  store i32 0, ptr %22, align 4, !tbaa !48
  call void @llvm.lifetime.end.p0(i64 4, ptr %22) #15
  %49 = load i32, ptr %20, align 4, !tbaa !48
  %50 = icmp slt i32 0, %49
  br i1 %50, label %51, label %149

51:                                               ; preds = %8
  call void @llvm.lifetime.start.p0(i64 4, ptr %23) #15
  store i32 0, ptr %23, align 4, !tbaa !48
  call void @llvm.lifetime.start.p0(i64 4, ptr %24) #15
  %52 = load i32, ptr %21, align 4, !tbaa !48
  store i32 %52, ptr %24, align 4, !tbaa !48
  call void @llvm.lifetime.start.p0(i64 4, ptr %25) #15
  store i32 1, ptr %25, align 4, !tbaa !48
  call void @llvm.lifetime.start.p0(i64 4, ptr %26) #15
  store i32 0, ptr %26, align 4, !tbaa !48
  call void @llvm.lifetime.start.p0(i64 4, ptr %27) #15
  %53 = load ptr, ptr %9, align 8
  %54 = load i32, ptr %53, align 4, !tbaa !48
  call void @__kmpc_for_static_init_4(ptr @1, i32 %54, i32 34, ptr %26, ptr %23, ptr %24, ptr %25, i32 1, i32 1)
  %55 = load i32, ptr %24, align 4, !tbaa !48
  %56 = load i32, ptr %21, align 4, !tbaa !48
  %57 = icmp sgt i32 %55, %56
  br i1 %57, label %58, label %60

58:                                               ; preds = %51
  %59 = load i32, ptr %21, align 4, !tbaa !48
  br label %62

60:                                               ; preds = %51
  %61 = load i32, ptr %24, align 4, !tbaa !48
  br label %62

62:                                               ; preds = %60, %58
  %63 = phi i32 [ %59, %58 ], [ %61, %60 ]
  store i32 %63, ptr %24, align 4, !tbaa !48
  %64 = load i32, ptr %23, align 4, !tbaa !48
  store i32 %64, ptr %19, align 4, !tbaa !48
  br label %65

65:                                               ; preds = %142, %62
  %66 = load i32, ptr %19, align 4, !tbaa !48
  %67 = load i32, ptr %24, align 4, !tbaa !48
  %68 = icmp sle i32 %66, %67
  br i1 %68, label %70, label %69

69:                                               ; preds = %65
  br label %145

70:                                               ; preds = %65
  %71 = load i32, ptr %19, align 4, !tbaa !48
  %72 = mul nsw i32 %71, 1
  %73 = add nsw i32 0, %72
  store i32 %73, ptr %27, align 4, !tbaa !48
  call void @llvm.lifetime.start.p0(i64 8, ptr %28) #15
  %74 = load ptr, ptr %17, align 8, !tbaa !44
  %75 = load i32, ptr %27, align 4, !tbaa !48
  %76 = invoke noundef ptr @_ZNK4ncnn3Mat3rowEi(ptr noundef nonnull align 8 dereferenceable(72) %74, i32 noundef %75)
          to label %77 unwind label %150

77:                                               ; preds = %70
  store ptr %76, ptr %28, align 8, !tbaa !59
  call void @llvm.lifetime.start.p0(i64 8, ptr %29) #15
  %78 = load ptr, ptr %18, align 8, !tbaa !44
  %79 = load i32, ptr %27, align 4, !tbaa !48
  %80 = invoke noundef ptr @_ZN4ncnn3Mat3rowEi(ptr noundef nonnull align 8 dereferenceable(72) %78, i32 noundef %79)
          to label %81 unwind label %150

81:                                               ; preds = %77
  store ptr %80, ptr %29, align 8, !tbaa !59
  call void @llvm.lifetime.start.p0(i64 8, ptr %30) #15
  %82 = load ptr, ptr %41, align 8, !tbaa !59
  store ptr %82, ptr %30, align 8, !tbaa !59
  call void @llvm.lifetime.start.p0(i64 4, ptr %31) #15
  store i32 0, ptr %31, align 4, !tbaa !48
  br label %83

83:                                               ; preds = %137, %81
  %84 = load i32, ptr %31, align 4, !tbaa !48
  %85 = load i32, ptr %42, align 4, !tbaa !48
  %86 = icmp slt i32 %84, %85
  br i1 %86, label %88, label %87

87:                                               ; preds = %83
  call void @llvm.lifetime.end.p0(i64 4, ptr %31) #15
  br label %140

88:                                               ; preds = %83
  call void @llvm.lifetime.start.p0(i64 4, ptr %32) #15
  %89 = load ptr, ptr %43, align 8, !tbaa !58
  %90 = load i32, ptr %31, align 4, !tbaa !48
  %91 = sext i32 %90 to i64
  %92 = getelementptr inbounds i32, ptr %89, i64 %91
  %93 = load i32, ptr %92, align 4, !tbaa !48
  store i32 %93, ptr %32, align 4, !tbaa !48
  call void @llvm.lifetime.start.p0(i64 8, ptr %33) #15
  %94 = load ptr, ptr %28, align 8, !tbaa !59
  %95 = load i32, ptr %32, align 4, !tbaa !48
  %96 = sext i32 %95 to i64
  %97 = getelementptr inbounds float, ptr %94, i64 %96
  store ptr %97, ptr %33, align 8, !tbaa !59
  call void @llvm.lifetime.start.p0(i64 4, ptr %34) #15
  %98 = load ptr, ptr %30, align 8, !tbaa !59
  %99 = getelementptr inbounds float, ptr %98, i64 0
  %100 = load float, ptr %99, align 4, !tbaa !57
  store float %100, ptr %34, align 4, !tbaa !57
  call void @llvm.lifetime.start.p0(i64 4, ptr %35) #15
  %101 = load ptr, ptr %30, align 8, !tbaa !59
  %102 = getelementptr inbounds float, ptr %101, i64 1
  %103 = load float, ptr %102, align 4, !tbaa !57
  store float %103, ptr %35, align 4, !tbaa !57
  call void @llvm.lifetime.start.p0(i64 4, ptr %36) #15
  %104 = load ptr, ptr %30, align 8, !tbaa !59
  %105 = getelementptr inbounds float, ptr %104, i64 2
  %106 = load float, ptr %105, align 4, !tbaa !57
  store float %106, ptr %36, align 4, !tbaa !57
  call void @llvm.lifetime.start.p0(i64 4, ptr %37) #15
  %107 = load ptr, ptr %30, align 8, !tbaa !59
  %108 = getelementptr inbounds float, ptr %107, i64 3
  %109 = load float, ptr %108, align 4, !tbaa !57
  store float %109, ptr %37, align 4, !tbaa !57
  %110 = load ptr, ptr %33, align 8, !tbaa !59
  %111 = getelementptr inbounds float, ptr %110, i64 -1
  %112 = load float, ptr %111, align 4, !tbaa !57
  %113 = load float, ptr %34, align 4, !tbaa !57
  %114 = fmul fast float %112, %113
  %115 = load ptr, ptr %33, align 8, !tbaa !59
  %116 = getelementptr inbounds float, ptr %115, i64 0
  %117 = load float, ptr %116, align 4, !tbaa !57
  %118 = load float, ptr %35, align 4, !tbaa !57
  %119 = fmul fast float %117, %118
  %120 = fadd fast float %114, %119
  %121 = load ptr, ptr %33, align 8, !tbaa !59
  %122 = getelementptr inbounds float, ptr %121, i64 1
  %123 = load float, ptr %122, align 4, !tbaa !57
  %124 = load float, ptr %36, align 4, !tbaa !57
  %125 = fmul fast float %123, %124
  %126 = fadd fast float %120, %125
  %127 = load ptr, ptr %33, align 8, !tbaa !59
  %128 = getelementptr inbounds float, ptr %127, i64 2
  %129 = load float, ptr %128, align 4, !tbaa !57
  %130 = load float, ptr %37, align 4, !tbaa !57
  %131 = fmul fast float %129, %130
  %132 = fadd fast float %126, %131
  %133 = load ptr, ptr %29, align 8, !tbaa !59
  %134 = getelementptr inbounds nuw float, ptr %133, i32 1
  store ptr %134, ptr %29, align 8, !tbaa !59
  store float %132, ptr %133, align 4, !tbaa !57
  %135 = load ptr, ptr %30, align 8, !tbaa !59
  %136 = getelementptr inbounds float, ptr %135, i64 4
  store ptr %136, ptr %30, align 8, !tbaa !59
  call void @llvm.lifetime.end.p0(i64 4, ptr %37) #15
  call void @llvm.lifetime.end.p0(i64 4, ptr %36) #15
  call void @llvm.lifetime.end.p0(i64 4, ptr %35) #15
  call void @llvm.lifetime.end.p0(i64 4, ptr %34) #15
  call void @llvm.lifetime.end.p0(i64 8, ptr %33) #15
  call void @llvm.lifetime.end.p0(i64 4, ptr %32) #15
  br label %137

137:                                              ; preds = %88
  %138 = load i32, ptr %31, align 4, !tbaa !48
  %139 = add nsw i32 %138, 1
  store i32 %139, ptr %31, align 4, !tbaa !48
  br label %83, !llvm.loop !104

140:                                              ; preds = %87
  call void @llvm.lifetime.end.p0(i64 8, ptr %30) #15
  call void @llvm.lifetime.end.p0(i64 8, ptr %29) #15
  call void @llvm.lifetime.end.p0(i64 8, ptr %28) #15
  br label %141

141:                                              ; preds = %140
  br label %142

142:                                              ; preds = %141
  %143 = load i32, ptr %19, align 4, !tbaa !48
  %144 = add nsw i32 %143, 1
  store i32 %144, ptr %19, align 4, !tbaa !48
  br label %65

145:                                              ; preds = %69
  br label %146

146:                                              ; preds = %145
  %147 = load ptr, ptr %9, align 8
  %148 = load i32, ptr %147, align 4, !tbaa !48
  call void @__kmpc_for_static_fini(ptr @1, i32 %148)
  call void @llvm.lifetime.end.p0(i64 4, ptr %27) #15
  call void @llvm.lifetime.end.p0(i64 4, ptr %26) #15
  call void @llvm.lifetime.end.p0(i64 4, ptr %25) #15
  call void @llvm.lifetime.end.p0(i64 4, ptr %24) #15
  call void @llvm.lifetime.end.p0(i64 4, ptr %23) #15
  br label %149

149:                                              ; preds = %146, %8
  call void @llvm.lifetime.end.p0(i64 4, ptr %21) #15
  call void @llvm.lifetime.end.p0(i64 4, ptr %20) #15
  call void @llvm.lifetime.end.p0(i64 4, ptr %19) #15
  ret void

150:                                              ; preds = %77, %70
  %151 = landingpad { ptr, i32 }
          catch ptr null
  %152 = extractvalue { ptr, i32 } %151, 0
  call void @__clang_call_terminate(ptr %152) #19
  unreachable
}